; Function Attrs: mustprogress nounwind uwtable
define hidden void @_ZN12vframeStreamC2EP7oopDesc6Handle(ptr noundef nonnull align 8 dereferenceable(5104) %0, ptr noundef %1, ptr %2) unnamed_addr #0 align 2 {
  %4 = alloca %class.RegisterMap, align 8
  %5 = alloca %class.frame, align 8
  call void @_ZN11RegisterMapC1EP7oopDescNS_9UpdateMapE(ptr noundef nonnull align 8 dereferenceable(4983) %4, ptr noundef %1, i32 noundef 1) #11
  %6 = getelementptr inbounds i8, ptr %0, i64 40
  %7 = getelementptr inbounds i8, ptr %0, i64 32
  call void @llvm.memset.p0.i64(ptr noundef nonnull align 8 dereferenceable(24) %0, i8 0, i64 24, i1 false)
  call void @llvm.memset.p0.i64(ptr noundef nonnull align 8 dereferenceable(16) %6, i8 0, i64 16, i1 false)
  store i32 2, ptr %7, align 8
  %8 = getelementptr inbounds i8, ptr %0, i64 24
  store ptr null, ptr %8, align 8
  %9 = getelementptr inbounds i8, ptr %0, i64 36
  store i8 0, ptr %9, align 4
  %10 = getelementptr inbounds i8, ptr %0, i64 64
  call void @llvm.memcpy.p0.p0.i64(ptr noundef nonnull align 8 dereferenceable(4984) %10, ptr noundef nonnull align 8 dereferenceable(4984) %4, i64 4984, i1 false)
  %11 = getelementptr inbounds i8, ptr %0, i64 5080
  store ptr null, ptr %11, align 8
  %12 = getelementptr inbounds i8, ptr %0, i64 5096
  %13 = getelementptr inbounds i8, ptr %0, i64 5024
  %14 = load ptr, ptr %13, align 8
  %15 = getelementptr inbounds i8, ptr %0, i64 56
  store ptr %14, ptr %15, align 8
  %16 = getelementptr inbounds i8, ptr %0, i64 5088
  store i8 0, ptr %16, align 8
  store ptr %2, ptr %12, align 8
  %17 = call noundef zeroext i1 @_ZN12Continuation19has_last_Java_frameEP7oopDescP5frameP11RegisterMap(ptr noundef %1, ptr noundef nonnull %0, ptr noundef nonnull %10) #11
  br i1 %17, label %.preheader, label %21

.preheader:                                       ; preds = %3
  %18 = call noundef zeroext i1 @_ZN18vframeStreamCommon15fill_from_frameEv(ptr noundef nonnull align 8 dereferenceable(5104) %0)
  br i1 %18, label %.loopexit, label %.lr.ph

.lr.ph:                                           ; preds = %.preheader
  %19 = getelementptr inbounds i8, ptr %0, i64 5045
  %20 = getelementptr inbounds i8, ptr %0, i64 5032
  br label %23

21:                                               ; preds = %3
  %22 = getelementptr inbounds i8, ptr %0, i64 5048
  store i32 2, ptr %22, align 8
  br label %.loopexit

23:                                               ; preds = %.lr.ph, %_ZNK5frame6senderEP11RegisterMap.exit
  call void @_ZNK5frame10sender_rawEP11RegisterMap(ptr dead_on_unwind nonnull writable sret(%class.frame) align 8 %5, ptr noundef nonnull align 8 dereferenceable(56) %0, ptr noundef nonnull %10)
  %24 = load i8, ptr %19, align 1, !noalias !41
  %25 = trunc i8 %24 to i1
  br i1 %25, label %26, label %_ZNK5frame6senderEP11RegisterMap.exit

26:                                               ; preds = %23
  %27 = load ptr, ptr %20, align 8, !noalias !41
  %28 = icmp eq ptr %27, null
  br i1 %28, label %_ZNK11RegisterMap7in_contEv.exit.thread.i, label %_ZNK11RegisterMap7in_contEv.exit.i

_ZNK11RegisterMap7in_contEv.exit.i:               ; preds = %26
  %29 = load ptr, ptr %27, align 8
  %.not.i = icmp eq ptr %29, null
  br i1 %.not.i, label %_ZNK11RegisterMap7in_contEv.exit.thread.i, label %_ZNK5frame6senderEP11RegisterMap.exit

_ZNK11RegisterMap7in_contEv.exit.thread.i:        ; preds = %_ZNK11RegisterMap7in_contEv.exit.i, %26
  %30 = load ptr, ptr %13, align 8, !noalias !41
  call void @_ZN17StackWatermarkSet12on_iterationEP10JavaThreadRK5frame(ptr noundef %30, ptr noundef nonnull align 8 dereferenceable(56) %5) #11
  br label %_ZNK5frame6senderEP11RegisterMap.exit

_ZNK5frame6senderEP11RegisterMap.exit:            ; preds = %23, %_ZNK11RegisterMap7in_contEv.exit.i, %_ZNK11RegisterMap7in_contEv.exit.thread.i
  call void @llvm.memcpy.p0.p0.i64(ptr noundef nonnull align 8 dereferenceable(56) %0, ptr noundef nonnull align 8 dereferenceable(56) %5, i64 56, i1 false)
  %31 = call noundef zeroext i1 @_ZN18vframeStreamCommon15fill_from_frameEv(ptr noundef nonnull align 8 dereferenceable(5104) %0)
  br i1 %31, label %.loopexit, label %23, !llvm.loop !44

.loopexit:                                        ; preds = %_ZNK5frame6senderEP11RegisterMap.exit, %.preheader, %21
  ret void
}